; Function Attrs: nounwind uwtable
define i32 @Cbs2_ManSolve_rec(ptr noundef %0, i32 noundef %1) local_unnamed_addr #2 {
  %3 = getelementptr inbounds nuw i8, ptr %0, i64 40
  %4 = load i32, ptr %3, align 8, !tbaa !71
  %.not = icmp eq i32 %4, 0
  br i1 %.not, label %7, label %5

5:                                                ; preds = %2
  %6 = tail call i32 @Cbs2_ManSolve2_rec(ptr noundef nonnull %0, i32 noundef %1)
  br label %9

7:                                                ; preds = %2
  %8 = tail call i32 @Cbs2_ManSolve1_rec(ptr noundef nonnull %0, i32 noundef %1)
  br label %9

9:                                                ; preds = %7, %5
  %10 = phi i32 [ %6, %5 ], [ %8, %7 ]
  ret i32 %10
}